target datalayout = "e-m:e-p270:32:32-p271:32:32-p272:64:64-i64:64-i128:128-f80:128-n8:16:32:64-S128"
target triple = "x86_64-pc-linux-gnu"

%"class.icu_77::MaybeStackArray" = type <{ ptr, i32, i8, [40 x i8], [3 x i8] }>
%"class.icu_77::CharString" = type { %"class.icu_77::MaybeStackArray", i32, [4 x i8] }
%"class.icu_77::MeasureUnitImpl" = type { i32, %"class.icu_77::MaybeStackVector", %"class.icu_77::CharString", i64 }
%"class.icu_77::MaybeStackVector" = type { %"class.icu_77::MemoryPool" }
%"class.icu_77::MemoryPool" = type { i32, %"class.icu_77::MaybeStackArray.0" }
%"class.icu_77::MaybeStackArray.0" = type { ptr, i32, i8, [8 x ptr] }
%"struct.icu_77::SingleUnitImpl" = type { i32, i32, i32 }

@_ZN6icu_7715MaybeStackArrayIcLi40EEC1Ev = weak_odr unnamed_addr alias void (ptr), ptr @_ZN6icu_7715MaybeStackArrayIcLi40EEC2Ev

; Function Attrs: mustprogress nounwind uwtable
define linkonce_odr void @_ZN6icu_7715MaybeStackArrayIPNS_14SingleUnitImplELi8EEC2Ev(ptr noundef nonnull align 8 dereferenceable(80) %0) unnamed_addr #0 comdat align 2 {
  %2 = alloca ptr, align 8
  store ptr %0, ptr %2, align 8, !tbaa !180
  %3 = load ptr, ptr %2, align 8
  %4 = getelementptr inbounds nuw %"class.icu_77::MaybeStackArray.0", ptr %3, i32 0, i32 0
  %5 = getelementptr inbounds nuw %"class.icu_77::MaybeStackArray.0", ptr %3, i32 0, i32 3
  %6 = getelementptr inbounds [8 x ptr], ptr %5, i64 0, i64 0
  store ptr %6, ptr %4, align 8, !tbaa !182
  %7 = getelementptr inbounds nuw %"class.icu_77::MaybeStackArray.0", ptr %3, i32 0, i32 1
  store i32 8, ptr %7, align 8, !tbaa !183
  %8 = getelementptr inbounds nuw %"class.icu_77::MaybeStackArray.0", ptr %3, i32 0, i32 2
  store i8 0, ptr %8, align 4, !tbaa !184
  ret void
}

; Function Attrs: mustprogress nounwind uwtable
define weak_odr noundef nonnull align 1 dereferenceable(1) ptr @_ZN6icu_7715MaybeStackArrayIcLi40EEixEl(ptr noundef nonnull align 8 dereferenceable(53) %0, i64 noundef %1) #0 comdat align 2 {
  %3 = alloca ptr, align 8
  %4 = alloca i64, align 8
  store ptr %0, ptr %3, align 8, !tbaa !3
  store i64 %1, ptr %4, align 8, !tbaa !18
  %5 = load ptr, ptr %3, align 8
  %6 = getelementptr inbounds nuw %"class.icu_77::MaybeStackArray", ptr %5, i32 0, i32 0
  %7 = load ptr, ptr %6, align 8, !tbaa !8
  %8 = load i64, ptr %4, align 8, !tbaa !18
  %9 = getelementptr inbounds i8, ptr %7, i64 %8
  ret ptr %9
}

; Function Attrs: mustprogress uwtable
define linkonce_odr void @_ZN6icu_7710MemoryPoolINS_14SingleUnitImplELi8EEC2Ev(ptr noundef nonnull align 8 dereferenceable(88) %0) unnamed_addr #1 comdat align 2 {
  %2 = alloca ptr, align 8
  store ptr %0, ptr %2, align 8, !tbaa !95
  %3 = load ptr, ptr %2, align 8
  %4 = getelementptr inbounds nuw %"class.icu_77::MemoryPool", ptr %3, i32 0, i32 0
  store i32 0, ptr %4, align 8, !tbaa !93
  %5 = getelementptr inbounds nuw %"class.icu_77::MemoryPool", ptr %3, i32 0, i32 1
  call void @_ZN6icu_7715MaybeStackArrayIPNS_14SingleUnitImplELi8EEC2Ev(ptr noundef nonnull align 8 dereferenceable(80) %5)
  ret void
}

; Function Attrs: mustprogress nounwind uwtable
define linkonce_odr noundef nonnull align 8 dereferenceable(8) ptr @_ZNK6icu_7715MaybeStackArrayIPNS_14SingleUnitImplELi8EEixEl(ptr noundef nonnull align 8 dereferenceable(80) %0, i64 noundef %1) #0 comdat align 2 {
  %3 = alloca ptr, align 8
  %4 = alloca i64, align 8
  store ptr %0, ptr %3, align 8, !tbaa !180
  store i64 %1, ptr %4, align 8, !tbaa !18
  %5 = load ptr, ptr %3, align 8
  %6 = getelementptr inbounds nuw %"class.icu_77::MaybeStackArray.0", ptr %5, i32 0, i32 0
  %7 = load ptr, ptr %6, align 8, !tbaa !182
  %8 = load i64, ptr %4, align 8, !tbaa !18
  %9 = getelementptr inbounds ptr, ptr %7, i64 %8
  ret ptr %9
}

; Function Attrs: mustprogress uwtable
define linkonce_odr void @_ZN6icu_7710CharStringC2Ev(ptr noundef nonnull align 8 dereferenceable(60) %0) unnamed_addr #1 comdat align 2 {
  %2 = alloca ptr, align 8
  store ptr %0, ptr %2, align 8, !tbaa !32
  %3 = load ptr, ptr %2, align 8
  %4 = getelementptr inbounds nuw %"class.icu_77::CharString", ptr %3, i32 0, i32 0
  call void @_ZN6icu_7715MaybeStackArrayIcLi40EEC1Ev(ptr noundef nonnull align 8 dereferenceable(53) %4)
  %5 = getelementptr inbounds nuw %"class.icu_77::CharString", ptr %3, i32 0, i32 1
  store i32 0, ptr %5, align 8, !tbaa !34
  %6 = getelementptr inbounds nuw %"class.icu_77::CharString", ptr %3, i32 0, i32 0
  %7 = call noundef nonnull align 1 dereferenceable(1) ptr @_ZN6icu_7715MaybeStackArrayIcLi40EEixEl(ptr noundef nonnull align 8 dereferenceable(53) %6, i64 noundef 0)
  store i8 0, ptr %7, align 1, !tbaa !36
  ret void
}

; Function Attrs: inlinehint mustprogress uwtable
define linkonce_odr void @_ZN6icu_7716MaybeStackVectorINS_14SingleUnitImplELi8EEC2Ev(ptr noundef nonnull align 8 dereferenceable(88) %0) unnamed_addr #3 comdat align 2 {
  %2 = alloca ptr, align 8
  store ptr %0, ptr %2, align 8, !tbaa !91
  %3 = load ptr, ptr %2, align 8
  call void @_ZN6icu_7710MemoryPoolINS_14SingleUnitImplELi8EEC2Ev(ptr noundef nonnull align 8 dereferenceable(88) %3)
  ret void
}

; Function Attrs: mustprogress uwtable
define linkonce_odr noundef ptr @_ZNK6icu_7716MaybeStackVectorINS_14SingleUnitImplELi8EEixEl(ptr noundef nonnull align 8 dereferenceable(88) %0, i64 noundef %1) #1 comdat align 2 {
  %3 = alloca ptr, align 8
  %4 = alloca i64, align 8
  store ptr %0, ptr %3, align 8, !tbaa !91
  store i64 %1, ptr %4, align 8, !tbaa !18
  %5 = load ptr, ptr %3, align 8
  %6 = getelementptr inbounds nuw %"class.icu_77::MemoryPool", ptr %5, i32 0, i32 1
  %7 = load i64, ptr %4, align 8, !tbaa !18
  %8 = call noundef nonnull align 8 dereferenceable(8) ptr @_ZNK6icu_7715MaybeStackArrayIPNS_14SingleUnitImplELi8EEixEl(ptr noundef nonnull align 8 dereferenceable(80) %6, i64 noundef %7)
  %9 = load ptr, ptr %8, align 8, !tbaa !79
  ret ptr %9
}

; Function Attrs: mustprogress nounwind uwtable
define linkonce_odr noundef i32 @_ZNK6icu_7716MaybeStackVectorINS_14SingleUnitImplELi8EE6lengthEv(ptr noundef nonnull align 8 dereferenceable(88) %0) #0 comdat align 2 {
  %2 = alloca ptr, align 8
  store ptr %0, ptr %2, align 8, !tbaa !91
  %3 = load ptr, ptr %2, align 8
  %4 = getelementptr inbounds nuw %"class.icu_77::MemoryPool", ptr %3, i32 0, i32 0
  %5 = load i32, ptr %4, align 8, !tbaa !93
  ret i32 %5
}

; Function Attrs: inlinehint mustprogress nounwind uwtable
define internal noundef signext i8 @_ZL9U_FAILURE10UErrorCode(i32 noundef %0) #2 {
  %2 = alloca i32, align 4
  store i32 %0, ptr %2, align 4, !tbaa !15
  %3 = load i32, ptr %2, align 4, !tbaa !15
  %4 = icmp sgt i32 %3, 0
  %5 = zext i1 %4 to i8
  ret i8 %5
}

; Function Attrs: mustprogress uwtable
define linkonce_odr void @_ZN6icu_7715MeasureUnitImplC2Ev(ptr noundef nonnull align 8 dereferenceable(168) %0) unnamed_addr #1 comdat align 2 personality ptr @__gxx_personality_v0 {
  %2 = alloca ptr, align 8
  %3 = alloca ptr, align 8
  %4 = alloca i32, align 4
  store ptr %0, ptr %2, align 8, !tbaa !25
  %5 = load ptr, ptr %2, align 8
  %6 = getelementptr inbounds nuw %"class.icu_77::MeasureUnitImpl", ptr %5, i32 0, i32 0
  store i32 0, ptr %6, align 8, !tbaa !67
  %7 = getelementptr inbounds nuw %"class.icu_77::MeasureUnitImpl", ptr %5, i32 0, i32 1
  call void @_ZN6icu_7716MaybeStackVectorINS_14SingleUnitImplELi8EEC2Ev(ptr noundef nonnull align 8 dereferenceable(88) %7)
  %8 = getelementptr inbounds nuw %"class.icu_77::MeasureUnitImpl", ptr %5, i32 0, i32 2
  invoke void @_ZN6icu_7710CharStringC2Ev(ptr noundef nonnull align 8 dereferenceable(60) %8)
          to label %9 unwind label %11

9:                                                ; preds = %1
  %10 = getelementptr inbounds nuw %"class.icu_77::MeasureUnitImpl", ptr %5, i32 0, i32 3
  store i64 0, ptr %10, align 8, !tbaa !60
  ret void

11:                                               ; preds = %1
  %12 = landingpad { ptr, i32 }
          cleanup
  %13 = extractvalue { ptr, i32 } %12, 0
  store ptr %13, ptr %3, align 8
  %14 = extractvalue { ptr, i32 } %12, 1
  store i32 %14, ptr %4, align 4
  call void @_ZN6icu_7710MemoryPoolINS_14SingleUnitImplELi8EED2Ev(ptr noundef nonnull align 8 dereferenceable(88) %7) #14
  br label %15

15:                                               ; preds = %11
  %16 = load ptr, ptr %3, align 8
  %17 = load i32, ptr %4, align 4
  %18 = insertvalue { ptr, i32 } poison, ptr %16, 0
  %19 = insertvalue { ptr, i32 } %18, i32 %17, 1
  resume { ptr, i32 } %19
}

; Function Attrs: mustprogress uwtable
define { i64, i32 } @_ZN6icu_7714SingleUnitImpl14forMeasureUnitERKNS_11MeasureUnitER10UErrorCode(ptr noundef nonnull align 8 dereferenceable(19) %0, ptr noundef nonnull align 4 dereferenceable(4) %1) #1 align 2 personality ptr @__gxx_personality_v0 {
  %3 = alloca %"struct.icu_77::SingleUnitImpl", align 4
  %4 = alloca ptr, align 8
  %5 = alloca ptr, align 8
  %6 = alloca %"class.icu_77::MeasureUnitImpl", align 8
  %7 = alloca ptr, align 8
  %8 = alloca ptr, align 8
  %9 = alloca i32, align 4
  %10 = alloca i32, align 4
  %11 = alloca { i64, i32 }, align 8
  store ptr %0, ptr %4, align 8, !tbaa !84
  store ptr %1, ptr %5, align 8, !tbaa !22
  call void @llvm.lifetime.start.p0(i64 168, ptr %6) #14
  call void @_ZN6icu_7715MeasureUnitImplC2Ev(ptr noundef nonnull align 8 dereferenceable(168) %6)
  call void @llvm.lifetime.start.p0(i64 8, ptr %7) #14
  %12 = load ptr, ptr %4, align 8, !tbaa !84
  %13 = load ptr, ptr %5, align 8, !tbaa !22
  %14 = invoke noundef nonnull align 8 dereferenceable(168) ptr @_ZN6icu_7715MeasureUnitImpl14forMeasureUnitERKNS_11MeasureUnitERS0_R10UErrorCode(ptr noundef nonnull align 8 dereferenceable(19) %12, ptr noundef nonnull align 8 dereferenceable(168) %6, ptr noundef nonnull align 4 dereferenceable(4) %13)
          to label %15 unwind label %25

15:                                               ; preds = %2
  store ptr %14, ptr %7, align 8, !tbaa !25
  %16 = load ptr, ptr %5, align 8, !tbaa !22
  %17 = load i32, ptr %16, align 4, !tbaa !15
  %18 = invoke noundef signext i8 @_ZL9U_FAILURE10UErrorCode(i32 noundef %17)
          to label %19 unwind label %25

19:                                               ; preds = %15
  %20 = icmp ne i8 %18, 0
  br i1 %20, label %21, label %29

21:                                               ; preds = %19
  %22 = getelementptr inbounds nuw %"struct.icu_77::SingleUnitImpl", ptr %3, i32 0, i32 0
  store i32 -1, ptr %22, align 4, !tbaa !86
  %23 = getelementptr inbounds nuw %"struct.icu_77::SingleUnitImpl", ptr %3, i32 0, i32 1
  store i32 30, ptr %23, align 4, !tbaa !81
  %24 = getelementptr inbounds nuw %"struct.icu_77::SingleUnitImpl", ptr %3, i32 0, i32 2
  store i32 1, ptr %24, align 4, !tbaa !72
  store i32 1, ptr %10, align 4
  br label %55

25:                                               ; preds = %45, %39, %29, %15, %2
  %26 = landingpad { ptr, i32 }
          cleanup
  %27 = extractvalue { ptr, i32 } %26, 0
  store ptr %27, ptr %8, align 8
  %28 = extractvalue { ptr, i32 } %26, 1
  store i32 %28, ptr %9, align 4
  call void @llvm.lifetime.end.p0(i64 8, ptr %7) #14
  call void @_ZN6icu_7715MeasureUnitImplD2Ev(ptr noundef nonnull align 8 dereferenceable(168) %6) #14
  call void @llvm.lifetime.end.p0(i64 168, ptr %6) #14
  br label %57

29:                                               ; preds = %19
  %30 = load ptr, ptr %7, align 8, !tbaa !25
  %31 = getelementptr inbounds nuw %"class.icu_77::MeasureUnitImpl", ptr %30, i32 0, i32 1
  %32 = invoke noundef i32 @_ZNK6icu_7716MaybeStackVectorINS_14SingleUnitImplELi8EE6lengthEv(ptr noundef nonnull align 8 dereferenceable(88) %31)
          to label %33 unwind label %25

33:                                               ; preds = %29
  %34 = icmp eq i32 %32, 0
  br i1 %34, label %35, label %39

35:                                               ; preds = %33
  %36 = getelementptr inbounds nuw %"struct.icu_77::SingleUnitImpl", ptr %3, i32 0, i32 0
  store i32 -1, ptr %36, align 4, !tbaa !86
  %37 = getelementptr inbounds nuw %"struct.icu_77::SingleUnitImpl", ptr %3, i32 0, i32 1
  store i32 30, ptr %37, align 4, !tbaa !81
  %38 = getelementptr inbounds nuw %"struct.icu_77::SingleUnitImpl", ptr %3, i32 0, i32 2
  store i32 1, ptr %38, align 4, !tbaa !72
  store i32 1, ptr %10, align 4
  br label %55

39:                                               ; preds = %33
  %40 = load ptr, ptr %7, align 8, !tbaa !25
  %41 = getelementptr inbounds nuw %"class.icu_77::MeasureUnitImpl", ptr %40, i32 0, i32 1
  %42 = invoke noundef i32 @_ZNK6icu_7716MaybeStackVectorINS_14SingleUnitImplELi8EE6lengthEv(ptr noundef nonnull align 8 dereferenceable(88) %41)
          to label %43 unwind label %25

43:                                               ; preds = %39
  %44 = icmp eq i32 %42, 1
  br i1 %44, label %45, label %50

45:                                               ; preds = %43
  %46 = load ptr, ptr %7, align 8, !tbaa !25
  %47 = getelementptr inbounds nuw %"class.icu_77::MeasureUnitImpl", ptr %46, i32 0, i32 1
  %48 = invoke noundef ptr @_ZNK6icu_7716MaybeStackVectorINS_14SingleUnitImplELi8EEixEl(ptr noundef nonnull align 8 dereferenceable(88) %47, i64 noundef 0)
          to label %49 unwind label %25

49:                                               ; preds = %45
  call void @llvm.memcpy.p0.p0.i64(ptr align 4 %3, ptr align 4 %48, i64 12, i1 false)
  store i32 1, ptr %10, align 4
  br label %55

50:                                               ; preds = %43
  %51 = load ptr, ptr %5, align 8, !tbaa !22
  store i32 1, ptr %51, align 4, !tbaa !15
  %52 = getelementptr inbounds nuw %"struct.icu_77::SingleUnitImpl", ptr %3, i32 0, i32 0
  store i32 -1, ptr %52, align 4, !tbaa !86
  %53 = getelementptr inbounds nuw %"struct.icu_77::SingleUnitImpl", ptr %3, i32 0, i32 1
  store i32 30, ptr %53, align 4, !tbaa !81
  %54 = getelementptr inbounds nuw %"struct.icu_77::SingleUnitImpl", ptr %3, i32 0, i32 2
  store i32 1, ptr %54, align 4, !tbaa !72
  store i32 1, ptr %10, align 4
  br label %55

55:                                               ; preds = %50, %49, %35, %21
  call void @llvm.lifetime.end.p0(i64 8, ptr %7) #14
  call void @_ZN6icu_7715MeasureUnitImplD2Ev(ptr noundef nonnull align 8 dereferenceable(168) %6) #14
  call void @llvm.lifetime.end.p0(i64 168, ptr %6) #14
  call void @llvm.memcpy.p0.p0.i64(ptr align 8 %11, ptr align 4 %3, i64 12, i1 false)
  %56 = load { i64, i32 }, ptr %11, align 8
  ret { i64, i32 } %56

57:                                               ; preds = %25
  %58 = load ptr, ptr %8, align 8
  %59 = load i32, ptr %9, align 4
  %60 = insertvalue { ptr, i32 } poison, ptr %58, 0
  %61 = insertvalue { ptr, i32 } %60, i32 %59, 1
  resume { ptr, i32 } %61
}