; Function Attrs: mustprogress uwtable
define { i64, i32 } @_ZN6icu_7714SingleUnitImpl14forMeasureUnitERKNS_11MeasureUnitER10UErrorCode(ptr noundef nonnull align 8 dereferenceable(19) %0, ptr noundef nonnull align 4 dereferenceable(4) %1) local_unnamed_addr #1 align 2 personality ptr @__gxx_personality_v0 {
  %3 = alloca %"class.icu_77::MeasureUnitImpl", align 8
  call void @llvm.lifetime.start.p0(i64 168, ptr nonnull %3) #18
  store i32 0, ptr %3, align 8, !tbaa !76
  %4 = getelementptr inbounds nuw i8, ptr %3, i64 8
  store i32 0, ptr %4, align 8, !tbaa !28
  %5 = getelementptr inbounds nuw i8, ptr %3, i64 16
  %6 = getelementptr inbounds nuw i8, ptr %3, i64 32
  store ptr %6, ptr %5, align 8, !tbaa !33
  %7 = getelementptr inbounds nuw i8, ptr %3, i64 24
  store i32 8, ptr %7, align 8, !tbaa !83
  %8 = getelementptr inbounds nuw i8, ptr %3, i64 28
  store i8 0, ptr %8, align 4, !tbaa !45
  %9 = getelementptr inbounds nuw i8, ptr %3, i64 96
  invoke void @_ZN6icu_7715MaybeStackArrayIcLi40EEC1Ev(ptr noundef nonnull align 8 dereferenceable(60) %9)
          to label %_ZN6icu_7715MeasureUnitImplC2Ev.exit unwind label %10

common.resume:                                    ; preds = %19, %10
  %common.resume.op = phi { ptr, i32 } [ %11, %10 ], [ %20, %19 ]
  resume { ptr, i32 } %common.resume.op

10:                                               ; preds = %2
  %11 = landingpad { ptr, i32 }
          cleanup
  call void @_ZN6icu_7710MemoryPoolINS_14SingleUnitImplELi8EED2Ev(ptr noundef nonnull align 8 dereferenceable(88) %4) #18
  br label %common.resume

_ZN6icu_7715MeasureUnitImplC2Ev.exit:             ; preds = %2
  %12 = getelementptr inbounds nuw i8, ptr %3, i64 152
  store i32 0, ptr %12, align 8, !tbaa !15
  %13 = load ptr, ptr %9, align 8, !tbaa !3
  store i8 0, ptr %13, align 1, !tbaa !17
  %14 = getelementptr inbounds nuw i8, ptr %3, i64 160
  store i64 0, ptr %14, align 8, !tbaa !81
  %15 = invoke noundef nonnull align 8 dereferenceable(168) ptr @_ZN6icu_7715MeasureUnitImpl14forMeasureUnitERKNS_11MeasureUnitERS0_R10UErrorCode(ptr noundef nonnull align 8 dereferenceable(19) %0, ptr noundef nonnull align 8 dereferenceable(168) %3, ptr noundef nonnull align 4 dereferenceable(4) %1)
          to label %16 unwind label %19

16:                                               ; preds = %_ZN6icu_7715MeasureUnitImplC2Ev.exit
  %17 = load i32, ptr %1, align 4, !tbaa !13
  %18 = icmp slt i32 %17, 1
  br i1 %18, label %21, label %30

19:                                               ; preds = %_ZN6icu_7715MeasureUnitImplC2Ev.exit
  %20 = landingpad { ptr, i32 }
          cleanup
  call void @_ZN6icu_7715MeasureUnitImplD2Ev(ptr noundef nonnull align 8 dereferenceable(168) %3) #18
  call void @llvm.lifetime.end.p0(i64 168, ptr nonnull %3) #18
  br label %common.resume

21:                                               ; preds = %16
  %22 = getelementptr inbounds nuw i8, ptr %15, i64 8
  %23 = load i32, ptr %22, align 8, !tbaa !28
  switch i32 %23, label %29 [
    i32 0, label %30
    i32 1, label %24
  ]

24:                                               ; preds = %21
  %25 = getelementptr inbounds nuw i8, ptr %15, i64 16
  %26 = load ptr, ptr %25, align 8, !tbaa !33
  %27 = load ptr, ptr %26, align 8, !tbaa !34
  %.sroa.08.0.copyload = load i64, ptr %27, align 4
  %.sroa.08.sroa.5.0.extract.shift = and i64 %.sroa.08.0.copyload, -4294967296
  %.sroa.8.0..sroa_idx = getelementptr inbounds nuw i8, ptr %27, i64 8
  %.sroa.8.0.copyload = load i32, ptr %.sroa.8.0..sroa_idx, align 4
  %28 = and i64 %.sroa.08.0.copyload, 4294967295
  br label %30

29:                                               ; preds = %21
  store i32 1, ptr %1, align 4, !tbaa !13
  br label %30

30:                                               ; preds = %21, %16, %29, %24
  %.sroa.8.0 = phi i32 [ %.sroa.8.0.copyload, %24 ], [ 1, %29 ], [ 1, %16 ], [ 1, %21 ]
  %.sroa.08.sroa.0.0 = phi i64 [ %28, %24 ], [ 4294967295, %29 ], [ 4294967295, %16 ], [ 4294967295, %21 ]
  %.sroa.08.sroa.5.0 = phi i64 [ %.sroa.08.sroa.5.0.extract.shift, %24 ], [ 128849018880, %29 ], [ 128849018880, %16 ], [ 128849018880, %21 ]
  call void @_ZN6icu_7715MaybeStackArrayIcLi40EED1Ev(ptr noundef nonnull align 8 dereferenceable(60) %9) #18
  %31 = load i32, ptr %4, align 8, !tbaa !28
  %32 = icmp sgt i32 %31, 0
  br i1 %32, label %.lr.ph.i.i, label %._crit_edge.i.i

._crit_edge.i.i:                                  ; preds = %45, %30
  %33 = load i8, ptr %8, align 4, !tbaa !45
  %.not.i.i.i.i = icmp eq i8 %33, 0
  br i1 %.not.i.i.i.i, label %_ZN6icu_7715MeasureUnitImplD2Ev.exit, label %34

34:                                               ; preds = %._crit_edge.i.i
  %35 = load ptr, ptr %5, align 8, !tbaa !33
  invoke void @uprv_free_77(ptr noundef %35)
          to label %_ZN6icu_7715MeasureUnitImplD2Ev.exit unwind label %36

36:                                               ; preds = %34
  %37 = landingpad { ptr, i32 }
          catch ptr null
  %38 = extractvalue { ptr, i32 } %37, 0
  call void @__clang_call_terminate(ptr %38) #20
  unreachable

.lr.ph.i.i:                                       ; preds = %30, %45
  %39 = phi i32 [ %46, %45 ], [ %31, %30 ]
  %indvars.iv.i.i = phi i64 [ %indvars.iv.next.i.i, %45 ], [ 0, %30 ]
  %40 = load ptr, ptr %5, align 8, !tbaa !33
  %41 = getelementptr inbounds nuw ptr, ptr %40, i64 %indvars.iv.i.i
  %42 = load ptr, ptr %41, align 8, !tbaa !34
  %43 = icmp eq ptr %42, null
  br i1 %43, label %45, label %44

44:                                               ; preds = %.lr.ph.i.i
  call void @_ZN6icu_777UMemorydlEPv(ptr noundef nonnull %42) #18
  %.pre.i.i = load i32, ptr %4, align 8, !tbaa !28
  br label %45

45:                                               ; preds = %44, %.lr.ph.i.i
  %46 = phi i32 [ %39, %.lr.ph.i.i ], [ %.pre.i.i, %44 ]
  %indvars.iv.next.i.i = add nuw nsw i64 %indvars.iv.i.i, 1
  %47 = sext i32 %46 to i64
  %48 = icmp slt i64 %indvars.iv.next.i.i, %47
  br i1 %48, label %.lr.ph.i.i, label %._crit_edge.i.i, !llvm.loop !46

_ZN6icu_7715MeasureUnitImplD2Ev.exit:             ; preds = %._crit_edge.i.i, %34
  call void @llvm.lifetime.end.p0(i64 168, ptr nonnull %3) #18
  %.sroa.08.sroa.0.0.insert.insert = or disjoint i64 %.sroa.08.sroa.5.0, %.sroa.08.sroa.0.0
  %.fca.0.insert = insertvalue { i64, i32 } poison, i64 %.sroa.08.sroa.0.0.insert.insert, 0
  %.fca.1.insert = insertvalue { i64, i32 } %.fca.0.insert, i32 %.sroa.8.0, 1
  ret { i64, i32 } %.fca.1.insert
}